Certificate:
    Data:
        Version: 1 (0x0)
        Serial Number: 3 (0x3)
    Signature Algorithm: sha256WithRSAEncryption
        Issuer: C=US, ST=Fake-State, L=Fake-City, O=Fake Certificate Authority Inc, OU=Department of Fakery, CN=Fake Root Certification Authority/emailAddress=fake@example.com
        Validity
            Not Before: Jan  9 07:56:46 2017 GMT
            Not After : Jan  7 07:56:46 2027 GMT
        Subject: C=US, ST=Fake-State, L=Fake-City, O=Fake Company Inc., CN=example.com/emailAddress=email@example.com
        Subject Public Key Info:
            Public Key Algorithm: rsaEncryption
                Public-Key: (2048 bit)
                Modulus:
                    00:a4:2b:14:11:a8:bc:a7:a3:14:e7:2c:6b:cf:8d:
                    fe:f1:1a:9a:19:74:aa:0a:29:32:e5:0b:f4:ec:76:
                    ab:3d:d4:97:76:9f:6d:68:c2:87:68:47:dd:d2:f5:
                    7e:79:a7:a5:e4:80:49:ae:36:9f:ca:57:ba:44:d3:
                    75:7d:4b:a1:b3:65:71:bc:a5:66:a9:bc:bf:51:57:
                    8f:59:52:ba:9b:92:f0:68:ce:51:aa:68:8c:ef:9a:
                    0c:a8:5d:13:a4:4f:16:1c:90:6a:d8:78:50:e1:4b:
                    73:b1:d5:f0:4e:50:9a:6e:f6:d3:26:bd:9a:3b:8f:
                    11:a7:ae:26:c4:0f:83:c2:f6:6a:aa:3b:be:48:8f:
                    fc:89:9b:21:6a:83:0b:cc:7b:03:b8:f2:87:f3:37:
                    6e:89:da:a6:4f:a3:45:91:94:33:30:c4:1e:18:68:
                    90:56:19:91:76:67:8b:44:0b:78:d7:9f:47:9e:41:
                    d9:9e:d2:a3:56:8e:88:0e:ff:f4:74:32:cf:bb:10:
                    77:c7:6d:2a:00:2c:e0:bc:78:23:54:c6:33:6b:ab:
                    04:1f:11:1d:01:84:5b:f5:94:83:ce:58:27:01:3c:
                    f1:d8:88:93:d2:df:e9:d8:54:31:47:1c:58:f0:2a:
                    b9:f7:62:82:bd:2d:24:ce:a9:23:f1:f7:4b:d7:c4:
                    77:fb
                Exponent: 65537 (0x10001)
    Signature Algorithm: sha256WithRSAEncryption
         88:48:7b:b7:07:8f:e9:4a:d1:eb:be:9a:8c:04:d5:ff:6e:42:
         13:fe:e7:df:94:f6:70:7c:df:9d:20:22:e3:91:17:22:07:ed:
         d7:1b:14:92:ce:e4:5b:29:23:f9:dd:e2:af:0c:2d:33:90:d4:
         fb:62:32:5a:27:6a:e9:0d:58:44:16:b8:f6:2a:22:bc:ac:35:
         1a:b3:ba:77:d8:b1:3b:39:c6:b3:78:6b:18:d3:cc:c5:c4:42:
         29:e5:10:36:68:81:7c:9a:63:9c:df:8c:ad:ae:c7:14:42:9d:
         25:86:70:8a:a6:e6:8d:f8:45:b7:04:f8:43:44:09:68:7c:0c:
         91:34:d1:a8:fc:5b:28:60:a8:73:76:f8:0d:da:d4:08:45:5c:
         e5:7b:69:2a:37:57:9b:21:f1:d0:d6:0e:2b:0d:55:3a:67:b1:
         a9:b6:d1:35:d2:b8:c1:67:d6:1d:48:e8:c7:2d:a3:af:a5:41:
         49:40:7b:92:df:bf:d3:e1:38:80:d8:88:ac:0a:c0:a5:eb:ad:
         e1:a1:81:07:83:97:f8:25:d3:d7:ce:0c:bd:2e:12:88:53:ae:
         92:b6:bc:6e:f1:0d:64:2e:29:b9:ca:cd:f4:70:91:61:2c:f0:
         e8:ae:43:82:f4:27:bd:0b:00:e1:d7:3d:fc:88:68:db:a3:74:
         53:9e:bf:b0
-----BEGIN CERTIFICATE-----
MIIDyzCCArMCAQMwDQYJKoZIhvcNAQELBQAwgcsxCzAJBgNVBAYTAlVTMRMwEQYD
VQQIDApGYWtlLVN0YXRlMRIwEAYDVQQHDAlGYWtlLUNpdHkxJzAlBgNVBAoMHkZh
a2UgQ2VydGlmaWNhdGUgQXV0aG9yaXR5IEluYzEdMBsGA1UECwwURGVwYXJ0bWVu
dCBvZiBGYWtlcnkxKjAoBgNVBAMMIUZha2UgUm9vdCBDZXJ0aWZpY2F0aW9uIEF1
dGhvcml0eTEfMB0GCSqGSIb3DQEJARYQZmFrZUBleGFtcGxlLmNvbTAeFw0xNzAx
MDkwNzU2NDZaFw0yNzAxMDcwNzU2NDZaMIGKMQswCQYDVQQGEwJVUzETMBEGA1UE
CAwKRmFrZS1TdGF0ZTESMBAGA1UEBwwJRmFrZS1DaXR5MRowGAYDVQQKDBFGYWtl
IENvbXBhbnkgSW5jLjEUMBIGA1UEAwwLZXhhbXBsZS5jb20xIDAeBgkqhkiG9w0B
CQEWEWVtYWlsQGV4YW1wbGUuY29tMIIBIjANBgkqhkiG9w0BAQEFAAOCAQ8AMIIB
CgKCAQEApCsUEai8p6MU5yxrz43+8RqaGXSqCiky5Qv07HarPdSXdp9taMKHaEfd
0vV+eael5IBJrjafyle6RNN1fUuhs2VxvKVmqby/UVePWVK6m5LwaM5RqmiM75oM
qF0TpE8WHJBq2HhQ4UtzsdXwTlCabvbTJr2aO48Rp64mxA+DwvZqqju+SI/8iZsh
aoMLzHsDuPKH8zduidqmT6NFkZQzMMQeGGiQVhmRdmeLRAt4159HnkHZntKjVo6I
Dv/0dDLPuxB3x20qACzgvHgjVMYza6sEHxEdAYRb9ZSDzlgnATzx2IiT0t/p2FQx
RxxY8Cq592KCvS0kzqkj8fdL18R3+wIDAQABMA0GCSqGSIb3DQEBCwUAA4IBAQCI
SHu3B4/pStHrvpqMBNX/bkIT/ufflPZwfN+dICLjkRciB+3XGxSSzuRbKSP53eKv
DC0zkNT7YjJaJ2rpDVhEFrj2KiK8rDUas7p32LE7OcazeGsY08zFxEIp5RA2aIF8
mmOc34ytrscUQp0lhnCKpuaN+EW3BPhDRAlofAyRNNGo/FsoYKhzdvgN2tQIRVzl
e2kqN1ebIfHQ1g4rDVU6Z7GpttE10rjBZ9YdSOjHLaOvpUFJQHuS37/T4TiA2Iis
CsCl663hoYEHg5f4JdPXzgy9LhKIU66Strxu8Q1kLim5ys30cJFhLPDorkOC9Ce9
CwDh1z38iGjbo3RTnr+w
-----END CERTIFICATE-----
