Certificate:
    Data:
        Version: 1 (0x0)
        Serial Number: 4 (0x4)
    Signature Algorithm: sha256WithRSAEncryption
        Issuer: C=US, ST=Fake-State, L=Fake-City, O=Fake Certificate Authority Inc, OU=Department of Fakery, CN=Fake Root Certification Authority/emailAddress=fake@example.com
        Validity
            Not Before: Jan  9 08:03:42 2017 GMT
            Not After : Jan  7 08:03:42 2027 GMT
        Subject: C=US, ST=Fake-State, L=Fake-City, O=Fake Company Inc, OU=Fake-Department, CN=wrongdomain.example.pizza/emailAddress=fake@wrongdomain.example.pizza
        Subject Public Key Info:
            Public Key Algorithm: rsaEncryption
                Public-Key: (2048 bit)
                Modulus:
                    00:b0:8d:44:af:b8:6f:a0:7c:b0:f6:d4:ec:fb:23:
                    5e:3b:5b:89:de:df:f2:1f:68:be:54:aa:f9:2c:1a:
                    5e:82:23:6e:fe:04:c3:a5:e0:a3:78:b1:ae:44:d9:
                    d0:d9:fa:42:16:b7:54:3b:ea:ec:2c:cc:8e:3f:b9:
                    3b:c4:f3:b6:52:9c:22:9c:8e:19:44:19:16:3a:b4:
                    82:b1:20:67:55:e2:92:25:a2:33:03:df:71:a5:66:
                    c4:b9:04:fb:dd:58:39:c7:3b:97:47:41:e6:e8:a8:
                    bc:e0:7e:13:85:f5:bc:62:93:9a:e0:5f:8d:c1:e9:
                    06:73:95:f3:d2:42:4e:93:ef:c4:2b:eb:d8:02:dc:
                    e2:d2:88:e9:7d:41:e6:4d:24:d4:d4:b8:e2:3f:00:
                    79:7b:73:a0:e2:ab:93:88:d7:28:12:e0:b0:ef:e0:
                    bf:18:d0:a4:de:dc:dd:a6:ca:07:bf:32:eb:ed:f3:
                    7c:39:53:0e:0a:fb:88:71:0d:ef:85:5b:21:89:e5:
                    23:0b:7a:ad:2f:c1:3d:55:55:e0:9a:84:99:34:20:
                    6a:00:94:48:57:bc:5e:8a:6a:80:ca:7d:68:02:c8:
                    23:23:3f:bd:de:83:18:7f:ed:45:d2:ea:cc:6b:14:
                    5f:32:47:87:03:30:eb:cc:87:68:c5:ee:5f:d4:db:
                    d3:fd
                Exponent: 65537 (0x10001)
    Signature Algorithm: sha256WithRSAEncryption
         1a:a7:e9:3e:e5:84:65:05:d0:52:83:41:c9:0c:97:1d:01:a5:
         de:df:12:07:c7:57:d1:bf:b7:17:69:e5:44:16:45:6f:68:2c:
         ad:ce:03:72:74:21:cb:45:7e:f7:bb:17:f1:24:4f:af:67:11:
         ae:0b:0d:7a:9a:4a:5b:6f:63:d5:bf:98:21:9a:fb:c4:87:ce:
         96:90:6c:b0:9a:1e:18:fa:ba:b8:c0:0f:1e:11:8a:cb:70:e6:
         08:64:d8:25:37:e8:da:af:27:84:cf:ed:0f:d0:fc:b5:61:25:
         8c:c2:e3:20:45:bf:6d:5c:90:3f:1f:5b:6d:ba:1d:14:75:3e:
         9a:96:e9:e5:8e:93:cb:4d:90:5e:77:7e:8b:61:7c:c7:37:70:
         95:a1:6b:25:2a:27:25:f1:42:ae:60:11:fc:79:f1:ea:5e:6d:
         55:04:58:fb:9e:b8:f9:10:d8:eb:44:43:72:b5:39:fc:cb:4f:
         e6:58:f3:ed:7c:b3:6e:6d:ae:8a:c5:25:c3:5a:32:33:dc:53:
         4f:ea:a2:2d:b9:45:14:02:0d:63:ee:79:e4:2d:6a:e6:a4:8f:
         0a:82:02:cc:2e:26:6b:55:aa:10:9d:74:08:e2:7b:a3:ec:57:
         4a:25:eb:33:30:64:31:49:b6:dd:ed:b7:49:14:14:12:8d:0c:
         f4:9d:3f:4c
-----BEGIN CERTIFICATE-----
MIID/zCCAucCAQQwDQYJKoZIhvcNAQELBQAwgcsxCzAJBgNVBAYTAlVTMRMwEQYD
VQQIDApGYWtlLVN0YXRlMRIwEAYDVQQHDAlGYWtlLUNpdHkxJzAlBgNVBAoMHkZh
a2UgQ2VydGlmaWNhdGUgQXV0aG9yaXR5IEluYzEdMBsGA1UECwwURGVwYXJ0bWVu
dCBvZiBGYWtlcnkxKjAoBgNVBAMMIUZha2UgUm9vdCBDZXJ0aWZpY2F0aW9uIEF1
dGhvcml0eTEfMB0GCSqGSIb3DQEJARYQZmFrZUBleGFtcGxlLmNvbTAeFw0xNzAx
MDkwODAzNDJaFw0yNzAxMDcwODAzNDJaMIG+MQswCQYDVQQGEwJVUzETMBEGA1UE
CAwKRmFrZS1TdGF0ZTESMBAGA1UEBwwJRmFrZS1DaXR5MRkwFwYDVQQKDBBGYWtl
IENvbXBhbnkgSW5jMRgwFgYDVQQLDA9GYWtlLURlcGFydG1lbnQxIjAgBgNVBAMM
GXdyb25nZG9tYWluLmV4YW1wbGUucGl6emExLTArBgkqhkiG9w0BCQEWHmZha2VA
d3Jvbmdkb21haW4uZXhhbXBsZS5waXp6YTCCASIwDQYJKoZIhvcNAQEBBQADggEP
ADCCAQoCggEBALCNRK+4b6B8sPbU7PsjXjtbid7f8h9ovlSq+SwaXoIjbv4Ew6Xg
o3ixrkTZ0Nn6Qha3VDvq7CzMjj+5O8TztlKcIpyOGUQZFjq0grEgZ1XikiWiMwPf
caVmxLkE+91YOcc7l0dB5uiovOB+E4X1vGKTmuBfjcHpBnOV89JCTpPvxCvr2ALc
4tKI6X1B5k0k1NS44j8AeXtzoOKrk4jXKBLgsO/gvxjQpN7c3abKB78y6+3zfDlT
Dgr7iHEN74VbIYnlIwt6rS/BPVVV4JqEmTQgagCUSFe8XopqgMp9aALIIyM/vd6D
GH/tRdLqzGsUXzJHhwMw68yHaMXuX9Tb0/0CAwEAATANBgkqhkiG9w0BAQsFAAOC
AQEAGqfpPuWEZQXQUoNByQyXHQGl3t8SB8dX0b+3F2nlRBZFb2gsrc4DcnQhy0V+
97sX8SRPr2cRrgsNeppKW29j1b+YIZr7xIfOlpBssJoeGPq6uMAPHhGKy3DmCGTY
JTfo2q8nhM/tD9D8tWEljMLjIEW/bVyQPx9bbbodFHU+mpbp5Y6Ty02QXnd+i2F8
xzdwlaFrJSonJfFCrmAR/Hnx6l5tVQRY+564+RDY60RDcrU5/MtP5ljz7Xyzbm2u
isUlw1oyM9xTT+qiLblFFAINY+555C1q5qSPCoICzC4ma1WqEJ10COJ7o+xXSiXr
MzBkMUm23e23SRQUEo0M9J0/TA==
-----END CERTIFICATE-----
